Certificate:
    Data:
        Version: 3 (0x2)
        Serial Number:
            c7:e6:b9:90:37:f4:7c:a9:78:93:3a:8b:9a:99:f3:26
        Signature Algorithm: sha256WithRSAEncryption
        Issuer: CN=ChangeMe
        Validity
            Not Before: Dec 19 07:47:24 2021 GMT
            Not After : Mar 23 07:47:24 2024 GMT
        Subject: CN=ChangeMe
        Subject Public Key Info:
            Public Key Algorithm: rsaEncryption
                RSA Public-Key: (2048 bit)
                Modulus:
                    00:c8:8a:36:8e:66:40:ad:48:f5:b4:39:5f:6e:77:
                    32:ba:00:d6:89:5a:4b:6c:e2:f6:25:1d:cd:ad:49:
                    d4:bd:be:85:6f:44:42:20:8b:11:f0:cd:09:a9:e0:
                    26:03:ab:aa:7b:3a:e8:a4:56:a5:2f:8d:56:98:f5:
                    48:6a:60:5e:44:9d:7c:1d:43:e4:60:84:f6:78:82:
                    7e:36:26:dc:7f:c3:68:32:90:1f:54:0a:f2:48:e5:
                    dd:cd:e4:00:6b:e8:7e:6a:ff:50:bb:98:c1:10:0a:
                    b7:bf:e8:db:71:fc:19:ce:84:4e:fe:73:74:ab:c2:
                    9a:f7:0e:7c:cf:66:86:26:f1:76:2d:df:8b:c3:d0:
                    ce:2c:17:ea:ec:14:d0:3e:42:bb:1a:ba:ea:e1:9c:
                    e1:27:68:28:c5:42:cd:8e:4b:17:93:ea:6f:64:41:
                    86:92:d0:eb:4d:6f:42:7a:8b:be:b4:86:bd:25:79:
                    b1:db:d7:0b:59:bc:bf:5c:d2:89:61:1f:a9:2d:65:
                    ff:22:b8:91:d6:19:a2:41:9d:da:0c:84:a3:6e:34:
                    91:a5:c0:df:70:fc:23:f7:c0:51:fc:b7:2c:62:bd:
                    35:18:7e:ae:44:f8:a9:90:fe:87:f6:40:17:80:e5:
                    58:50:7a:73:65:c3:7c:c2:62:c2:bd:7a:1a:45:7c:
                    34:09
                Exponent: 65537 (0x10001)
        X509v3 extensions:
            X509v3 Basic Constraints: 
                CA:FALSE
            X509v3 Subject Key Identifier: 
                E5:6A:C8:7A:35:E3:24:4B:DF:1C:4C:9A:AC:03:67:9C:A9:CA:EF:01
            X509v3 Authority Key Identifier: 
                keyid:E1:1B:C3:6B:8E:68:F2:13:01:73:BD:BE:EF:95:01:6A:3B:94:8B:C6
                DirName:/CN=ChangeMe
                serial:48:2F:8F:6C:94:2D:71:66:45:A4:14:56:1E:A9:C0:E8:3F:35:1F:C4

            X509v3 Extended Key Usage: 
                TLS Web Client Authentication
            X509v3 Key Usage: 
                Digital Signature
    Signature Algorithm: sha256WithRSAEncryption
         a8:18:c4:52:26:7c:df:8b:83:2d:2a:6a:32:9c:8a:34:5a:79:
         ae:f5:b9:8a:d9:32:ca:3e:f5:12:6a:2e:c4:1d:62:ad:17:a5:
         4e:06:d9:f8:70:8c:e1:96:0c:3f:9e:41:4e:d4:fb:e9:04:67:
         af:24:9c:2f:8f:20:bc:f0:b5:95:43:53:76:87:86:66:79:44:
         39:36:ed:90:c5:2a:9b:d5:62:4e:a8:fd:c7:74:15:48:03:a7:
         55:ef:74:8d:9d:94:32:3a:bb:11:e4:89:52:56:65:24:c5:63:
         26:4a:9c:3a:0f:3b:2c:a0:76:3c:b7:72:10:5c:36:43:1e:ed:
         cf:5d:fc:9f:41:d8:01:22:90:15:1d:be:3c:f2:14:ea:57:94:
         f5:fd:7b:ec:9f:cb:7d:37:9d:de:19:ad:d0:3d:0d:80:02:99:
         3c:8d:f1:91:7f:6f:69:d7:6e:92:73:a8:ba:8e:19:41:a1:55:
         8a:5d:1a:cf:fa:8b:a7:96:59:3b:cd:11:ba:1f:a5:8c:54:3d:
         d8:1f:4a:28:fd:38:dd:20:f8:c3:12:b3:57:6b:cc:ed:af:b7:
         66:e6:bf:96:3d:5b:46:71:16:65:5b:25:d3:a5:11:52:cb:ae:
         40:21:a4:55:3c:0b:f4:74:b1:1a:f3:9a:13:81:0a:29:59:26:
         fd:c6:5b:24
-----BEGIN CERTIFICATE-----
MIIDUTCCAjmgAwIBAgIRAMfmuZA39HypeJM6i5qZ8yYwDQYJKoZIhvcNAQELBQAw
EzERMA8GA1UEAwwIQ2hhbmdlTWUwHhcNMjExMjE5MDc0NzI0WhcNMjQwMzIzMDc0
NzI0WjATMREwDwYDVQQDDAhDaGFuZ2VNZTCCASIwDQYJKoZIhvcNAQEBBQADggEP
ADCCAQoCggEBAMiKNo5mQK1I9bQ5X253MroA1olaS2zi9iUdza1J1L2+hW9EQiCL
EfDNCangJgOrqns66KRWpS+NVpj1SGpgXkSdfB1D5GCE9niCfjYm3H/DaDKQH1QK
8kjl3c3kAGvofmr/ULuYwRAKt7/o23H8Gc6ETv5zdKvCmvcOfM9mhibxdi3fi8PQ
ziwX6uwU0D5Cuxq66uGc4SdoKMVCzY5LF5Pqb2RBhpLQ601vQnqLvrSGvSV5sdvX
C1m8v1zSiWEfqS1l/yK4kdYZokGd2gyEo240kaXA33D8I/fAUfy3LGK9NRh+rkT4
qZD+h/ZAF4DlWFB6c2XDfMJiwr16GkV8NAkCAwEAAaOBnzCBnDAJBgNVHRMEAjAA
MB0GA1UdDgQWBBTlash6NeMkS98cTJqsA2ecqcrvATBOBgNVHSMERzBFgBThG8Nr
jmjyEwFzvb7vlQFqO5SLxqEXpBUwEzERMA8GA1UEAwwIQ2hhbmdlTWWCFEgvj2yU
LXFmRaQUVh6pwOg/NR/EMBMGA1UdJQQMMAoGCCsGAQUFBwMCMAsGA1UdDwQEAwIH
gDANBgkqhkiG9w0BAQsFAAOCAQEAqBjEUiZ834uDLSpqMpyKNFp5rvW5itkyyj71
EmouxB1irRelTgbZ+HCM4ZYMP55BTtT76QRnryScL48gvPC1lUNTdoeGZnlEOTbt
kMUqm9ViTqj9x3QVSAOnVe90jZ2UMjq7EeSJUlZlJMVjJkqcOg87LKB2PLdyEFw2
Qx7tz138n0HYASKQFR2+PPIU6leU9f177J/LfTed3hmt0D0NgAKZPI3xkX9vaddu
knOouo4ZQaFVil0az/qLp5ZZO80Ruh+ljFQ92B9KKP043SD4wxKzV2vM7a+3Zua/
lj1bRnEWZVsl06URUsuuQCGkVTwL9HSxGvOaE4EKKVkm/cZbJA==
-----END CERTIFICATE-----
