Certificate:
    Data:
        Version: 3 (0x2)
        Serial Number:
            80:6a:90:c1:25:06:4b:53:6d:75:d2:c9:3a:8c:e3:87
        Signature Algorithm: sha256WithRSAEncryption
        Issuer: CN=ChangeMe
        Validity
            Not Before: Dec 19 07:20:25 2021 GMT
            Not After : Mar 23 07:20:25 2024 GMT
        Subject: CN=ChangeMe
        Subject Public Key Info:
            Public Key Algorithm: rsaEncryption
                RSA Public-Key: (2048 bit)
                Modulus:
                    00:b9:a7:43:d8:f9:c7:73:92:16:4d:1a:ce:98:78:
                    d9:d4:a8:8a:5e:2f:98:62:05:f4:67:73:22:1d:d6:
                    e1:03:33:e1:6b:e0:8b:f1:01:24:ad:ae:ba:e8:04:
                    0d:3a:11:01:33:4a:70:f3:af:6d:7e:cf:06:a3:68:
                    19:ec:95:bb:1f:51:46:ed:4a:eb:21:dc:e9:84:16:
                    5a:8c:a8:b7:af:93:e4:ab:48:d9:10:18:bd:0f:ac:
                    7c:d3:9e:05:a2:85:3c:cd:c1:5f:3a:fd:22:78:04:
                    95:43:92:af:e5:94:84:b1:2d:fc:8d:54:23:95:87:
                    a4:7a:35:3f:5b:be:42:aa:59:b0:a0:8e:92:45:be:
                    af:47:ed:82:cd:89:d7:33:ef:79:3c:d2:e3:10:16:
                    c1:60:b1:d4:a3:cb:2a:65:71:4d:a9:77:6c:6d:59:
                    ea:66:bf:ef:e7:f4:54:14:2e:90:0d:1b:62:23:43:
                    36:33:b2:69:8c:2b:6d:dd:6a:da:18:bf:7c:77:cc:
                    1f:b4:a3:02:cb:7b:de:d6:00:e8:81:58:27:2d:14:
                    d7:a5:19:60:d9:78:20:dd:62:12:c7:9a:cb:77:d5:
                    b0:3c:f8:12:59:d9:36:ea:a7:5d:f0:89:4d:19:89:
                    ba:f2:87:c5:db:d5:e4:0d:41:28:17:64:9d:2a:0b:
                    b0:c7
                Exponent: 65537 (0x10001)
        X509v3 extensions:
            X509v3 Basic Constraints: 
                CA:FALSE
            X509v3 Subject Key Identifier: 
                BD:9A:B3:CC:07:C8:A9:57:54:4B:82:4C:71:24:CE:B5:F8:EF:78:01
            X509v3 Authority Key Identifier: 
                keyid:02:61:A2:2E:06:BC:49:16:96:52:47:D4:D9:AF:1C:EB:D6:A0:7C:4F
                DirName:/CN=ChangeMe
                serial:1B:65:FB:70:31:03:4E:89:12:13:B9:4A:A2:22:18:90:DF:10:D3:7C

            X509v3 Extended Key Usage: 
                TLS Web Client Authentication
            X509v3 Key Usage: 
                Digital Signature
    Signature Algorithm: sha256WithRSAEncryption
         22:e9:58:a1:bf:3c:61:a7:de:93:79:cb:d6:92:f3:01:1f:c7:
         84:57:3e:8d:92:35:ed:46:df:5b:cb:62:d1:97:fe:63:e4:aa:
         a4:bf:c2:47:07:62:c5:26:05:71:d8:01:41:92:7a:6f:4f:47:
         36:7f:8d:d2:22:ba:f3:60:de:ed:3f:be:ee:8f:0e:17:ac:ff:
         2b:a6:e1:9b:1a:5e:61:db:db:20:4e:dd:66:34:75:bb:26:de:
         67:a4:8b:6d:66:c1:df:66:41:db:49:aa:cf:2d:b2:31:71:df:
         6a:c9:b7:53:2a:20:b7:8e:7d:fb:87:c0:0f:1c:a0:8f:97:50:
         ea:27:d7:79:a9:88:da:19:b3:d5:74:d2:d3:60:15:a5:70:0d:
         d6:2a:78:ac:9a:6d:f8:7e:24:0e:af:fe:ed:2a:11:ed:4a:bf:
         01:e5:15:79:1f:6d:7b:2d:74:0f:9b:37:06:9c:34:e3:81:ce:
         20:87:5e:f5:f1:50:81:72:fd:8c:f6:7b:27:69:ce:13:a0:90:
         3b:16:e3:06:dd:5c:47:94:8c:28:da:46:eb:21:cf:23:dc:0e:
         7b:70:bd:40:4d:f8:20:6a:f8:49:6d:45:2b:78:f4:8c:c9:44:
         85:fe:1c:fc:5f:79:2d:63:95:c3:b1:c7:a2:3e:6f:2f:3c:1e:
         10:fc:67:3b
-----BEGIN CERTIFICATE-----
MIIDUTCCAjmgAwIBAgIRAIBqkMElBktTbXXSyTqM44cwDQYJKoZIhvcNAQELBQAw
EzERMA8GA1UEAwwIQ2hhbmdlTWUwHhcNMjExMjE5MDcyMDI1WhcNMjQwMzIzMDcy
MDI1WjATMREwDwYDVQQDDAhDaGFuZ2VNZTCCASIwDQYJKoZIhvcNAQEBBQADggEP
ADCCAQoCggEBALmnQ9j5x3OSFk0azph42dSoil4vmGIF9GdzIh3W4QMz4Wvgi/EB
JK2uuugEDToRATNKcPOvbX7PBqNoGeyVux9RRu1K6yHc6YQWWoyot6+T5KtI2RAY
vQ+sfNOeBaKFPM3BXzr9IngElUOSr+WUhLEt/I1UI5WHpHo1P1u+QqpZsKCOkkW+
r0ftgs2J1zPveTzS4xAWwWCx1KPLKmVxTal3bG1Z6ma/7+f0VBQukA0bYiNDNjOy
aYwrbd1q2hi/fHfMH7SjAst73tYA6IFYJy0U16UZYNl4IN1iEseay3fVsDz4ElnZ
NuqnXfCJTRmJuvKHxdvV5A1BKBdknSoLsMcCAwEAAaOBnzCBnDAJBgNVHRMEAjAA
MB0GA1UdDgQWBBS9mrPMB8ipV1RLgkxxJM61+O94ATBOBgNVHSMERzBFgBQCYaIu
BrxJFpZSR9TZrxzr1qB8T6EXpBUwEzERMA8GA1UEAwwIQ2hhbmdlTWWCFBtl+3Ax
A06JEhO5SqIiGJDfENN8MBMGA1UdJQQMMAoGCCsGAQUFBwMCMAsGA1UdDwQEAwIH
gDANBgkqhkiG9w0BAQsFAAOCAQEAIulYob88Yafek3nL1pLzAR/HhFc+jZI17Ubf
W8ti0Zf+Y+SqpL/CRwdixSYFcdgBQZJ6b09HNn+N0iK682De7T++7o8OF6z/K6bh
mxpeYdvbIE7dZjR1uybeZ6SLbWbB32ZB20mqzy2yMXHfasm3Uyogt459+4fADxyg
j5dQ6ifXeamI2hmz1XTS02AVpXAN1ip4rJpt+H4kDq/+7SoR7Uq/AeUVeR9tey10
D5s3Bpw044HOIIde9fFQgXL9jPZ7J2nOE6CQOxbjBt1cR5SMKNpG6yHPI9wOe3C9
QE34IGr4SW1FK3j0jMlEhf4c/F95LWOVw7HHoj5vLzweEPxnOw==
-----END CERTIFICATE-----
