Certificate:
    Data:
        Version: 3 (0x2)
        Serial Number:
            5d:bd:dd:a2:2b:2a:71:1f:4f:34:b2:76:6b:7a:ed:39
        Signature Algorithm: sha256WithRSAEncryption
        Issuer: CN=ChangeMe
        Validity
            Not Before: Dec 19 13:04:35 2021 GMT
            Not After : Mar 23 13:04:35 2024 GMT
        Subject: CN=ChangeMe
        Subject Public Key Info:
            Public Key Algorithm: rsaEncryption
                RSA Public-Key: (2048 bit)
                Modulus:
                    00:d5:90:91:27:63:ff:85:a7:1d:45:02:a4:79:4b:
                    e5:6e:52:0d:de:1f:9d:a5:ab:1b:b8:50:a0:42:60:
                    a0:99:d9:5c:14:99:0e:88:03:eb:ad:18:79:9b:a6:
                    b1:02:88:4a:58:98:de:ba:4e:03:fb:02:b1:f3:e4:
                    fa:21:58:5b:25:b1:e4:a0:25:10:48:54:5e:55:88:
                    fb:76:10:fe:3b:f2:13:42:a1:94:0f:02:6f:bf:ec:
                    6e:f1:6c:ef:b4:cb:68:af:86:76:c7:67:54:a4:dd:
                    52:c5:76:9b:1c:da:ef:79:52:8c:ff:df:a5:d5:a8:
                    a2:01:d7:e5:96:37:5c:54:27:c0:c3:25:fa:cb:11:
                    bb:f7:18:df:a0:af:bc:97:f0:c4:a7:99:99:ac:f5:
                    e3:36:68:15:74:bb:1e:49:16:08:04:5c:57:fd:ee:
                    75:95:7c:54:5a:6d:29:b5:a0:6e:a6:3b:79:fa:99:
                    1c:c4:64:6e:37:06:b4:4b:b3:5f:87:ee:8e:2a:95:
                    7d:bb:18:6c:a3:af:c1:e5:00:a7:cd:bc:0b:00:fb:
                    5f:a5:54:5e:f6:f9:90:04:39:3d:79:12:fb:39:de:
                    01:66:d8:4e:7b:3f:1b:24:76:8e:b2:f7:f5:c8:f9:
                    81:21:58:f6:44:19:54:3e:d9:9b:fa:8b:9c:ef:36:
                    fd:01
                Exponent: 65537 (0x10001)
        X509v3 extensions:
            X509v3 Basic Constraints: 
                CA:FALSE
            X509v3 Subject Key Identifier: 
                9B:28:7F:C5:18:7C:0D:FE:C0:D9:17:FE:78:68:4B:FD:CA:BF:9D:A3
            X509v3 Authority Key Identifier: 
                keyid:E1:4F:92:99:63:14:44:B5:FC:BB:12:8A:37:D6:4C:2A:10:C9:7E:F5
                DirName:/CN=ChangeMe
                serial:58:6B:16:96:F4:A6:2A:A6:15:AA:4D:EB:29:A3:56:9F:4E:58:23:9F

            X509v3 Extended Key Usage: 
                TLS Web Client Authentication
            X509v3 Key Usage: 
                Digital Signature
    Signature Algorithm: sha256WithRSAEncryption
         85:d8:7c:ac:66:0a:42:0e:d1:86:c2:9d:d6:54:ad:7f:b3:5e:
         26:1c:67:d8:fc:fe:bf:4c:39:46:e1:18:e4:b6:ec:bc:24:d2:
         95:c5:b6:d2:ce:1a:ad:1e:e0:c1:19:9c:40:6f:4c:a2:d6:b8:
         99:45:02:1d:79:9b:1a:49:86:30:ad:45:7e:9e:ac:21:be:6b:
         17:26:8c:92:c4:8a:2e:25:5a:85:0c:79:7e:c6:8f:13:bf:ee:
         c9:49:39:fe:d8:57:fd:df:b4:cf:47:04:dc:25:d3:d1:5d:6c:
         ec:0a:db:e5:b4:fb:17:9a:7d:2a:d6:1e:52:a9:10:56:09:f0:
         5c:f5:e2:2e:16:de:7a:f7:ca:f3:fb:1e:1b:a6:53:65:1f:5f:
         bb:ac:9d:23:23:b4:57:72:fb:7a:d2:67:34:94:29:23:a9:cc:
         05:0b:11:65:70:c2:41:a3:e4:92:10:d9:df:d6:14:a8:76:c0:
         ae:cd:91:28:89:34:21:19:ca:8d:56:28:07:74:93:67:01:4a:
         15:9e:36:9a:30:4d:0e:b0:52:9c:ac:66:a1:ec:d4:23:ae:97:
         ff:41:92:ee:75:6b:f1:46:dd:0c:e4:f3:9c:30:0b:d0:27:85:
         df:03:51:e1:d5:d6:ac:dc:c2:b4:07:c4:4a:40:36:dd:2f:41:
         24:b4:51:8e
-----BEGIN CERTIFICATE-----
MIIDUDCCAjigAwIBAgIQXb3doisqcR9PNLJ2a3rtOTANBgkqhkiG9w0BAQsFADAT
MREwDwYDVQQDDAhDaGFuZ2VNZTAeFw0yMTEyMTkxMzA0MzVaFw0yNDAzMjMxMzA0
MzVaMBMxETAPBgNVBAMMCENoYW5nZU1lMIIBIjANBgkqhkiG9w0BAQEFAAOCAQ8A
MIIBCgKCAQEA1ZCRJ2P/hacdRQKkeUvlblIN3h+dpasbuFCgQmCgmdlcFJkOiAPr
rRh5m6axAohKWJjeuk4D+wKx8+T6IVhbJbHkoCUQSFReVYj7dhD+O/ITQqGUDwJv
v+xu8WzvtMtor4Z2x2dUpN1SxXabHNrveVKM/9+l1aiiAdflljdcVCfAwyX6yxG7
9xjfoK+8l/DEp5mZrPXjNmgVdLseSRYIBFxX/e51lXxUWm0ptaBupjt5+pkcxGRu
Nwa0S7Nfh+6OKpV9uxhso6/B5QCnzbwLAPtfpVRe9vmQBDk9eRL7Od4BZthOez8b
JHaOsvf1yPmBIVj2RBlUPtmb+ouc7zb9AQIDAQABo4GfMIGcMAkGA1UdEwQCMAAw
HQYDVR0OBBYEFJsof8UYfA3+wNkX/nhoS/3Kv52jME4GA1UdIwRHMEWAFOFPkplj
FES1/LsSijfWTCoQyX71oRekFTATMREwDwYDVQQDDAhDaGFuZ2VNZYIUWGsWlvSm
KqYVqk3rKaNWn05YI58wEwYDVR0lBAwwCgYIKwYBBQUHAwIwCwYDVR0PBAQDAgeA
MA0GCSqGSIb3DQEBCwUAA4IBAQCF2HysZgpCDtGGwp3WVK1/s14mHGfY/P6/TDlG
4Rjktuy8JNKVxbbSzhqtHuDBGZxAb0yi1riZRQIdeZsaSYYwrUV+nqwhvmsXJoyS
xIouJVqFDHl+xo8Tv+7JSTn+2Ff937TPRwTcJdPRXWzsCtvltPsXmn0q1h5SqRBW
CfBc9eIuFt5698rz+x4bplNlH1+7rJ0jI7RXcvt60mc0lCkjqcwFCxFlcMJBo+SS
ENnf1hSodsCuzZEoiTQhGcqNVigHdJNnAUoVnjaaME0OsFKcrGah7NQjrpf/QZLu
dWvxRt0M5POcMAvQJ4XfA1Hh1das3MK0B8RKQDbdL0EktFGO
-----END CERTIFICATE-----
