Certificate:
    Data:
        Version: 3 (0x2)
        Serial Number:
            20:fe:20:29:ca:a8:4d:4f:d4:bb:64:5e:7e:1b:6c:91
        Signature Algorithm: sha256WithRSAEncryption
        Issuer: CN=ChangeMe
        Validity
            Not Before: Dec 19 07:38:26 2021 GMT
            Not After : Mar 23 07:38:26 2024 GMT
        Subject: CN=ChangeMe
        Subject Public Key Info:
            Public Key Algorithm: rsaEncryption
                RSA Public-Key: (2048 bit)
                Modulus:
                    00:c4:5d:dd:ed:6d:4b:76:c2:a2:62:cc:00:4c:b6:
                    b5:f4:e6:2e:4f:a7:c6:66:d9:d2:9b:ee:a0:0a:6f:
                    10:d3:82:32:48:4a:85:37:08:06:fd:5d:3b:e3:64:
                    f0:40:6a:95:fb:1a:72:38:46:59:c8:97:35:90:8e:
                    63:4d:de:c7:73:70:eb:04:c1:c7:1b:ae:93:18:83:
                    86:5e:96:0f:b8:50:53:b7:22:db:96:33:f5:32:23:
                    c0:29:63:57:56:ec:1f:a1:76:2f:2b:c1:4d:7f:af:
                    4b:72:5b:ce:ed:15:f2:00:6f:4d:ea:5d:fe:05:be:
                    c1:90:1e:14:a7:a8:68:49:44:ee:59:85:a3:dd:ac:
                    75:51:56:33:fa:91:4d:22:9e:2c:c3:ab:3c:af:b6:
                    85:63:8d:d9:19:52:ed:5a:97:61:b1:a4:59:fb:af:
                    bc:ac:2c:3a:b2:47:07:94:4e:ad:a8:29:de:78:d4:
                    8e:57:e9:c6:23:01:82:74:cf:22:db:20:de:08:40:
                    e9:b8:e1:73:29:0b:ec:52:e6:1a:09:3d:eb:d4:12:
                    47:f9:03:1e:1d:10:dd:f7:1d:6b:dd:42:0e:cd:51:
                    51:6e:d6:e0:4b:f7:c9:0f:73:e7:a8:1a:20:6d:fe:
                    44:37:c2:57:d6:48:0e:80:19:d5:20:97:9e:a1:ed:
                    b3:67
                Exponent: 65537 (0x10001)
        X509v3 extensions:
            X509v3 Basic Constraints: 
                CA:FALSE
            X509v3 Subject Key Identifier: 
                DE:3E:6F:4F:6B:66:17:0F:30:95:8D:F1:77:1F:C7:9E:54:F0:2F:4C
            X509v3 Authority Key Identifier: 
                keyid:02:61:A2:2E:06:BC:49:16:96:52:47:D4:D9:AF:1C:EB:D6:A0:7C:4F
                DirName:/CN=ChangeMe
                serial:1B:65:FB:70:31:03:4E:89:12:13:B9:4A:A2:22:18:90:DF:10:D3:7C

            X509v3 Extended Key Usage: 
                TLS Web Client Authentication
            X509v3 Key Usage: 
                Digital Signature
    Signature Algorithm: sha256WithRSAEncryption
         42:bf:d4:b7:a5:b1:71:d6:99:4a:9a:e7:07:f6:b3:6c:af:e2:
         47:ed:bf:5a:41:fc:57:55:e8:0e:49:b7:85:79:1c:60:83:82:
         b5:0b:14:89:17:6e:a7:63:81:0e:36:b1:6e:d3:44:62:37:18:
         77:d6:ca:b2:83:de:92:e2:4a:58:3a:b7:8a:70:4b:3e:16:4c:
         0f:f6:4e:d9:9e:41:97:ce:89:41:96:6b:5b:a1:5e:9a:a1:9c:
         f0:88:89:5b:4a:9b:b5:ed:ea:c2:73:bf:e4:c3:7f:c0:e9:48:
         83:5b:55:66:f4:43:5c:7f:51:94:1b:93:32:42:dc:3f:8d:ee:
         86:ed:66:6c:51:b6:d2:fb:c7:a6:fd:16:35:a7:ce:e2:b3:8c:
         b8:c3:e9:67:d5:05:69:06:a9:4a:02:c1:4d:af:fa:ee:be:09:
         f4:5f:b7:e7:df:c0:8c:ac:de:91:0f:a7:2f:e5:d1:7a:27:31:
         71:b9:da:9f:1c:e4:6b:04:0c:bc:93:ce:8b:f3:75:bf:32:78:
         04:2d:fa:bc:07:13:30:fe:65:7c:92:e1:18:26:cc:5e:0e:37:
         e4:9c:68:48:5b:b9:58:84:f0:df:1b:b7:f0:fd:72:6b:8b:46:
         16:2a:83:2e:b4:8c:f0:86:04:73:d9:14:73:82:e9:2b:ae:d1:
         c7:83:f9:8e
-----BEGIN CERTIFICATE-----
MIIDUDCCAjigAwIBAgIQIP4gKcqoTU/Uu2RefhtskTANBgkqhkiG9w0BAQsFADAT
MREwDwYDVQQDDAhDaGFuZ2VNZTAeFw0yMTEyMTkwNzM4MjZaFw0yNDAzMjMwNzM4
MjZaMBMxETAPBgNVBAMMCENoYW5nZU1lMIIBIjANBgkqhkiG9w0BAQEFAAOCAQ8A
MIIBCgKCAQEAxF3d7W1LdsKiYswATLa19OYuT6fGZtnSm+6gCm8Q04IySEqFNwgG
/V0742TwQGqV+xpyOEZZyJc1kI5jTd7Hc3DrBMHHG66TGIOGXpYPuFBTtyLbljP1
MiPAKWNXVuwfoXYvK8FNf69LclvO7RXyAG9N6l3+Bb7BkB4Up6hoSUTuWYWj3ax1
UVYz+pFNIp4sw6s8r7aFY43ZGVLtWpdhsaRZ+6+8rCw6skcHlE6tqCneeNSOV+nG
IwGCdM8i2yDeCEDpuOFzKQvsUuYaCT3r1BJH+QMeHRDd9x1r3UIOzVFRbtbgS/fJ
D3PnqBogbf5EN8JX1kgOgBnVIJeeoe2zZwIDAQABo4GfMIGcMAkGA1UdEwQCMAAw
HQYDVR0OBBYEFN4+b09rZhcPMJWN8Xcfx55U8C9MME4GA1UdIwRHMEWAFAJhoi4G
vEkWllJH1NmvHOvWoHxPoRekFTATMREwDwYDVQQDDAhDaGFuZ2VNZYIUG2X7cDED
TokSE7lKoiIYkN8Q03wwEwYDVR0lBAwwCgYIKwYBBQUHAwIwCwYDVR0PBAQDAgeA
MA0GCSqGSIb3DQEBCwUAA4IBAQBCv9S3pbFx1plKmucH9rNsr+JH7b9aQfxXVegO
SbeFeRxgg4K1CxSJF26nY4EONrFu00RiNxh31sqyg96S4kpYOreKcEs+FkwP9k7Z
nkGXzolBlmtboV6aoZzwiIlbSpu17erCc7/kw3/A6UiDW1Vm9ENcf1GUG5MyQtw/
je6G7WZsUbbS+8em/RY1p87is4y4w+ln1QVpBqlKAsFNr/ruvgn0X7fn38CMrN6R
D6cv5dF6JzFxudqfHORrBAy8k86L83W/MngELfq8BxMw/mV8kuEYJsxeDjfknGhI
W7lYhPDfG7fw/XJri0YWKoMutIzwhgRz2RRzgukrrtHHg/mO
-----END CERTIFICATE-----
